; Function Attrs: mustprogress nofree norecurse nosync nounwind willreturn memory(read, argmem: readwrite, inaccessiblemem: none) uwtable
define range(i32 -1094995529, 1) i32 @av_ac3_parse_header(ptr noundef %0, i64 noundef %1, ptr noundef writeonly captures(none) %2, ptr noundef writeonly captures(none) %3) local_unnamed_addr #2 {
  %5 = alloca %struct.GetBitContext, align 8
  %6 = alloca %struct.AC3HeaderInfo, align 8
  call void @llvm.lifetime.start.p0(i64 32, ptr nonnull %5) #8
  call void @llvm.lifetime.start.p0(i64 64, ptr nonnull %6) #8
  %7 = trunc i64 %1 to i32
  %or.cond.i = icmp ugt i32 %7, 268435455
  %8 = shl nuw nsw i32 %7, 3
  %9 = select i1 %or.cond.i, i32 -8, i32 %8
  %or.cond.i.i = icmp ult i32 %9, 2147483135
  %10 = icmp ne ptr %0, null
  %or.cond3.i.i = and i1 %10, %or.cond.i.i
  %.018.i.i = select i1 %or.cond3.i.i, i32 %9, i32 0
  %.017.i.i = select i1 %or.cond.i.i, ptr %0, ptr null
  %11 = lshr exact i32 %.018.i.i, 3
  store ptr %.017.i.i, ptr %5, align 8, !tbaa !15
  %12 = getelementptr inbounds nuw i8, ptr %5, i64 20
  store i32 %.018.i.i, ptr %12, align 4, !tbaa !43
  %13 = add nuw nsw i32 %.018.i.i, 8
  %14 = getelementptr inbounds nuw i8, ptr %5, i64 24
  store i32 %13, ptr %14, align 8, !tbaa !14
  %15 = zext nneg i32 %11 to i64
  %16 = getelementptr inbounds nuw i8, ptr %.017.i.i, i64 %15
  %17 = getelementptr inbounds nuw i8, ptr %5, i64 8
  store ptr %16, ptr %17, align 8, !tbaa !44
  %18 = getelementptr inbounds nuw i8, ptr %5, i64 16
  store i32 0, ptr %18, align 8, !tbaa !9
  br i1 %or.cond3.i.i, label %19, label %27

19:                                               ; preds = %4
  %20 = call i32 @ff_ac3_parse_header(ptr noundef nonnull %5, ptr noundef nonnull %6)
  %21 = icmp slt i32 %20, 0
  br i1 %21, label %27, label %22

22:                                               ; preds = %19
  %23 = getelementptr inbounds nuw i8, ptr %6, i64 5
  %24 = load i8, ptr %23, align 1, !tbaa !20
  store i8 %24, ptr %2, align 1, !tbaa !4
  %25 = getelementptr inbounds nuw i8, ptr %6, i64 46
  %26 = load i16, ptr %25, align 2, !tbaa !37
  store i16 %26, ptr %3, align 2, !tbaa !34
  br label %27

27:                                               ; preds = %19, %4, %22
  %.0 = phi i32 [ 0, %22 ], [ -1094995529, %4 ], [ -1094995529, %19 ]
  call void @llvm.lifetime.end.p0(i64 64, ptr nonnull %6) #8
  call void @llvm.lifetime.end.p0(i64 32, ptr nonnull %5) #8
  ret i32 %.0
}